target datalayout = "e-m:e-p270:32:32-p271:32:32-p272:64:64-i64:64-i128:128-f80:128-n8:16:32:64-S128"
target triple = "x86_64-pc-linux-gnu"

%struct.AV1PixelRect = type { i32, i32, i32, i32 }
%struct.AV1Common = type { %struct.CurrentFrame, %struct.aom_internal_error_info, i32, i32, i32, i32, i32, i32, i8, i8, [33 x i32], i32, ptr, ptr, [8 x i32], %struct.scale_factors, [8 x %struct.scale_factors], [8 x ptr], i32, i32, i32, %struct.FeatureFlags, %struct.CommonModeInfoParams, %struct.CommonQuantParams, %struct.segmentation, ptr, [8 x i8], %struct.loop_filter_info_n, %struct.loopfilter, [3 x %struct.RestorationInfo], ptr, ptr, %struct.yv12_buffer_config, %struct.CdefInfo, %struct.aom_film_grain_t, %struct.DeltaQInfo, [8 x %struct.WarpedMotionParams], %struct.SequenceHeader, ptr, ptr, %struct.CommonTileParams, ptr, %struct.CommonContexts, i32, [8 x i32], ptr, i32, [8 x i32], [8 x i8], i32, i32, i32, i32 }
%struct.CurrentFrame = type { i8, i8, i32, i32, i32, %struct.SkipModeInfo, i32, i32 }
%struct.SkipModeInfo = type { i32, i32, i32, i32 }
%struct.aom_internal_error_info = type { i32, i32, [200 x i8], i32, [1 x %struct.__jmp_buf_tag] }
%struct.__jmp_buf_tag = type { [8 x i64], i32, %struct.__sigset_t }
%struct.__sigset_t = type { [16 x i64] }
%struct.scale_factors = type { i32, i32, i32, i32, ptr, ptr }
%struct.FeatureFlags = type { i8, i8, i8, i8, i8, i8, i8, i8, i8, i8, i8, i8, i8, i8, i32, i32, i8 }
%struct.CommonModeInfoParams = type { i32, i32, i32, i32, i32, ptr, i32, i32, i8, ptr, i32, i32, ptr, ptr, ptr, ptr }
%struct.CommonQuantParams = type { i32, i32, i32, i32, i32, i32, [8 x [2 x i16]], [8 x [2 x i16]], [8 x [2 x i16]], [16 x [3 x [19 x ptr]]], [16 x [3 x [19 x ptr]]], [8 x [19 x ptr]], [8 x [19 x ptr]], [8 x [19 x ptr]], i8, i32, i32, i32 }
%struct.segmentation = type { i8, i8, i8, i8, [8 x [8 x i16]], [8 x i32], i32, i8 }
%struct.loop_filter_info_n = type { [64 x %struct.loop_filter_thresh], [3 x [8 x [2 x [8 x [2 x i8]]]]] }
%struct.loop_filter_thresh = type { [16 x i8], [16 x i8], [16 x i8] }
%struct.loopfilter = type { [2 x i32], i32, i32, i32, i8, i8, [8 x i8], [2 x i8], i32 }
%struct.RestorationInfo = type { i32, i32, i32, i32, i32, ptr, %struct.RestorationStripeBoundaries, i32 }
%struct.RestorationStripeBoundaries = type { ptr, ptr, i32, i32 }
%struct.yv12_buffer_config = type { %union.anon, %union.anon.0, %union.anon.2, %union.anon.4, %union.anon.6, %union.anon.8, i32, [3 x ptr], ptr, i32, ptr, i64, i32, i64, i32, i32, i32, i32, i32, i32, i8, i32, i32, i32, i32, i32, i32, ptr }
%union.anon = type { %struct.anon }
%struct.anon = type { i32, i32 }
%union.anon.0 = type { %struct.anon.1 }
%struct.anon.1 = type { i32, i32 }
%union.anon.2 = type { %struct.anon.3 }
%struct.anon.3 = type { i32, i32 }
%union.anon.4 = type { %struct.anon.5 }
%struct.anon.5 = type { i32, i32 }
%union.anon.6 = type { %struct.anon.7 }
%struct.anon.7 = type { i32, i32 }
%union.anon.8 = type { %struct.anon.9 }
%struct.anon.9 = type { ptr, ptr, ptr }
%struct.CdefInfo = type { i32, i32, [16 x i32], [16 x i32], i32 }
%struct.aom_film_grain_t = type { i32, i32, [14 x [2 x i32]], i32, [10 x [2 x i32]], i32, [10 x [2 x i32]], i32, i32, i32, [24 x i32], [25 x i32], [25 x i32], i32, i32, i32, i32, i32, i32, i32, i32, i32, i32, i32, i32, i16 }
%struct.DeltaQInfo = type { i32, i32, i32, i32, i32 }
%struct.WarpedMotionParams = type { [8 x i32], i16, i16, i16, i16, i8, i8 }
%struct.SequenceHeader = type { i32, i32, i32, i32, i8, i32, i32, i8, i32, i32, %struct.OrderHintInfo, i8, i8, i8, i8, i8, i8, i8, i8, i8, i8, i8, i8, i8, i8, i32, i8, i8, i32, i32, i32, i32, i32, i32, i32, i8, i8, i32, [32 x i32], i32, %struct.aom_timing, i8, %struct.aom_dec_model_info, i8, [32 x i8], [32 x i8], [33 x %struct.aom_dec_model_op_parameters] }
%struct.OrderHintInfo = type { i32, i32, i32, i32 }
%struct.aom_timing = type { i32, i32, i32, i32 }
%struct.aom_dec_model_info = type { i32, i32, i32, i32 }
%struct.aom_dec_model_op_parameters = type { i32, i64, i64, i32, i32, i32, i32, i32 }
%struct.CommonTileParams = type { i32, i32, i32, i32, i32, i32, i32, i32, i32, i32, i32, i32, i32, i32, i32, [65 x i32], [65 x i32], i32, i32 }
%struct.CommonContexts = type { ptr, [3 x ptr], ptr, i32, i32, i32 }
%struct.RestorationTileLimits = type { i32, i32, i32, i32 }

; Function Attrs: nounwind uwtable
define hidden void @av1_foreach_rest_unit_in_row(ptr noundef %0, ptr noundef %1, ptr noundef %2, i32 noundef %3, i32 noundef %4, i32 noundef %5, i32 noundef %6, i32 noundef %7, i32 noundef %8, ptr noundef %9, ptr noundef %10, ptr noundef %11, ptr noundef %12, ptr noundef %13, ptr noundef %14) #0 {
  %16 = alloca ptr, align 8
  %17 = alloca ptr, align 8
  %18 = alloca ptr, align 8
  %19 = alloca i32, align 4
  %20 = alloca i32, align 4
  %21 = alloca i32, align 4
  %22 = alloca i32, align 4
  %23 = alloca i32, align 4
  %24 = alloca i32, align 4
  %25 = alloca ptr, align 8
  %26 = alloca ptr, align 8
  %27 = alloca ptr, align 8
  %28 = alloca ptr, align 8
  %29 = alloca ptr, align 8
  %30 = alloca ptr, align 8
  %31 = alloca i32, align 4
  %32 = alloca i32, align 4
  %33 = alloca i32, align 4
  %34 = alloca i32, align 4
  %35 = alloca i32, align 4
  %36 = alloca i32, align 4
  %37 = alloca i32, align 4
  store ptr %0, ptr %16, align 8
  store ptr %1, ptr %17, align 8
  store ptr %2, ptr %18, align 8
  store i32 %3, ptr %19, align 4
  store i32 %4, ptr %20, align 4
  store i32 %5, ptr %21, align 4
  store i32 %6, ptr %22, align 4
  store i32 %7, ptr %23, align 4
  store i32 %8, ptr %24, align 4
  store ptr %9, ptr %25, align 8
  store ptr %10, ptr %26, align 8
  store ptr %11, ptr %27, align 8
  store ptr %12, ptr %28, align 8
  store ptr %13, ptr %29, align 8
  store ptr %14, ptr %30, align 8
  %38 = load ptr, ptr %17, align 8
  %39 = getelementptr inbounds nuw %struct.AV1PixelRect, ptr %38, i32 0, i32 2
  %40 = load i32, ptr %39, align 4
  %41 = load ptr, ptr %17, align 8
  %42 = getelementptr inbounds nuw %struct.AV1PixelRect, ptr %41, i32 0, i32 0
  %43 = load i32, ptr %42, align 4
  %44 = sub nsw i32 %40, %43
  store i32 %44, ptr %31, align 4
  %45 = load i32, ptr %20, align 4
  %46 = mul nsw i32 %45, 3
  %47 = sdiv i32 %46, 2
  store i32 %47, ptr %32, align 4
  store i32 0, ptr %33, align 4
  store i32 0, ptr %34, align 4
  br label %48

48:                                               ; preds = %104, %15
  %49 = load i32, ptr %33, align 4
  %50 = load i32, ptr %31, align 4
  %51 = icmp slt i32 %49, %50
  br i1 %51, label %52, label %123

52:                                               ; preds = %48
  %53 = load i32, ptr %31, align 4
  %54 = load i32, ptr %33, align 4
  %55 = sub nsw i32 %53, %54
  store i32 %55, ptr %35, align 4
  %56 = load i32, ptr %35, align 4
  %57 = load i32, ptr %32, align 4
  %58 = icmp slt i32 %56, %57
  br i1 %58, label %59, label %61

59:                                               ; preds = %52
  %60 = load i32, ptr %35, align 4
  br label %63

61:                                               ; preds = %52
  %62 = load i32, ptr %20, align 4
  br label %63

63:                                               ; preds = %61, %59
  %64 = phi i32 [ %60, %59 ], [ %62, %61 ]
  store i32 %64, ptr %36, align 4
  %65 = load ptr, ptr %17, align 8
  %66 = getelementptr inbounds nuw %struct.AV1PixelRect, ptr %65, i32 0, i32 0
  %67 = load i32, ptr %66, align 4
  %68 = load i32, ptr %33, align 4
  %69 = add nsw i32 %67, %68
  %70 = load ptr, ptr %16, align 8
  %71 = getelementptr inbounds nuw %struct.RestorationTileLimits, ptr %70, i32 0, i32 0
  store i32 %69, ptr %71, align 4
  %72 = load ptr, ptr %17, align 8
  %73 = getelementptr inbounds nuw %struct.AV1PixelRect, ptr %72, i32 0, i32 0
  %74 = load i32, ptr %73, align 4
  %75 = load i32, ptr %33, align 4
  %76 = add nsw i32 %74, %75
  %77 = load i32, ptr %36, align 4
  %78 = add nsw i32 %76, %77
  %79 = load ptr, ptr %16, align 8
  %80 = getelementptr inbounds nuw %struct.RestorationTileLimits, ptr %79, i32 0, i32 1
  store i32 %78, ptr %80, align 4
  %81 = load i32, ptr %21, align 4
  %82 = load i32, ptr %19, align 4
  %83 = load i32, ptr %22, align 4
  %84 = mul nsw i32 %82, %83
  %85 = add nsw i32 %81, %84
  %86 = load i32, ptr %34, align 4
  %87 = add nsw i32 %85, %86
  store i32 %87, ptr %37, align 4
  %88 = load ptr, ptr %28, align 8
  %89 = load ptr, ptr %30, align 8
  %90 = load i32, ptr %19, align 4
  %91 = load i32, ptr %34, align 4
  %92 = load i32, ptr %24, align 4
  call void %88(ptr noundef %89, i32 noundef %90, i32 noundef %91, i32 noundef %92)
  %93 = load i32, ptr %19, align 4
  %94 = add nsw i32 %93, 1
  %95 = load i32, ptr %23, align 4
  %96 = icmp slt i32 %94, %95
  br i1 %96, label %97, label %104

97:                                               ; preds = %63
  %98 = load ptr, ptr %28, align 8
  %99 = load ptr, ptr %30, align 8
  %100 = load i32, ptr %19, align 4
  %101 = add nsw i32 %100, 2
  %102 = load i32, ptr %34, align 4
  %103 = load i32, ptr %24, align 4
  call void %98(ptr noundef %99, i32 noundef %101, i32 noundef %102, i32 noundef %103)
  br label %104

104:                                              ; preds = %97, %63
  %105 = load ptr, ptr %18, align 8
  %106 = load ptr, ptr %16, align 8
  %107 = load ptr, ptr %17, align 8
  %108 = load i32, ptr %37, align 4
  %109 = load ptr, ptr %25, align 8
  %110 = load ptr, ptr %26, align 8
  %111 = load ptr, ptr %27, align 8
  call void %105(ptr noundef %106, ptr noundef %107, i32 noundef %108, ptr noundef %109, ptr noundef %110, ptr noundef %111)
  %112 = load ptr, ptr %29, align 8
  %113 = load ptr, ptr %30, align 8
  %114 = load i32, ptr %19, align 4
  %115 = load i32, ptr %34, align 4
  %116 = load i32, ptr %22, align 4
  %117 = load i32, ptr %24, align 4
  call void %112(ptr noundef %113, i32 noundef %114, i32 noundef %115, i32 noundef %116, i32 noundef %117)
  %118 = load i32, ptr %36, align 4
  %119 = load i32, ptr %33, align 4
  %120 = add nsw i32 %119, %118
  store i32 %120, ptr %33, align 4
  %121 = load i32, ptr %34, align 4
  %122 = add nsw i32 %121, 1
  store i32 %122, ptr %34, align 4
  br label %48, !llvm.loop !32

123:                                              ; preds = %48
  ret void
}

; Function Attrs: nounwind uwtable
define internal void @foreach_rest_unit_in_tile(ptr noundef %0, i32 noundef %1, i32 noundef %2, i32 noundef %3, i32 noundef %4, i32 noundef %5, i32 noundef %6, i32 noundef %7, i32 noundef %8, i32 noundef %9, ptr noundef %10, ptr noundef %11, ptr noundef %12, ptr noundef %13) #0 {
  %15 = alloca ptr, align 8
  %16 = alloca i32, align 4
  %17 = alloca i32, align 4
  %18 = alloca i32, align 4
  %19 = alloca i32, align 4
  %20 = alloca i32, align 4
  %21 = alloca i32, align 4
  %22 = alloca i32, align 4
  %23 = alloca i32, align 4
  %24 = alloca i32, align 4
  %25 = alloca ptr, align 8
  %26 = alloca ptr, align 8
  %27 = alloca ptr, align 8
  %28 = alloca ptr, align 8
  %29 = alloca i32, align 4
  %30 = alloca i32, align 4
  %31 = alloca i32, align 4
  %32 = alloca i32, align 4
  %33 = alloca i32, align 4
  %34 = alloca i32, align 4
  %35 = alloca i32, align 4
  %36 = alloca i32, align 4
  %37 = alloca %struct.RestorationTileLimits, align 4
  %38 = alloca i32, align 4
  store ptr %0, ptr %15, align 8
  store i32 %1, ptr %16, align 4
  store i32 %2, ptr %17, align 4
  store i32 %3, ptr %18, align 4
  store i32 %4, ptr %19, align 4
  store i32 %5, ptr %20, align 4
  store i32 %6, ptr %21, align 4
  store i32 %7, ptr %22, align 4
  store i32 %8, ptr %23, align 4
  store i32 %9, ptr %24, align 4
  store ptr %10, ptr %25, align 8
  store ptr %11, ptr %26, align 8
  store ptr %12, ptr %27, align 8
  store ptr %13, ptr %28, align 8
  %39 = load ptr, ptr %15, align 8
  %40 = getelementptr inbounds nuw %struct.AV1PixelRect, ptr %39, i32 0, i32 3
  %41 = load i32, ptr %40, align 4
  %42 = load ptr, ptr %15, align 8
  %43 = getelementptr inbounds nuw %struct.AV1PixelRect, ptr %42, i32 0, i32 1
  %44 = load i32, ptr %43, align 4
  %45 = sub nsw i32 %41, %44
  store i32 %45, ptr %29, align 4
  %46 = load i32, ptr %22, align 4
  %47 = mul nsw i32 %46, 3
  %48 = sdiv i32 %47, 2
  store i32 %48, ptr %30, align 4
  %49 = load i32, ptr %17, align 4
  %50 = load i32, ptr %16, align 4
  %51 = load i32, ptr %18, align 4
  %52 = mul nsw i32 %50, %51
  %53 = add nsw i32 %49, %52
  store i32 %53, ptr %31, align 4
  %54 = load i32, ptr %31, align 4
  %55 = load i32, ptr %21, align 4
  %56 = mul nsw i32 %54, %55
  store i32 %56, ptr %32, align 4
  store i32 0, ptr %33, align 4
  store i32 0, ptr %34, align 4
  br label %57

57:                                               ; preds = %121, %14
  %58 = load i32, ptr %33, align 4
  %59 = load i32, ptr %29, align 4
  %60 = icmp slt i32 %58, %59
  br i1 %60, label %61, label %138

61:                                               ; preds = %57
  %62 = load i32, ptr %29, align 4
  %63 = load i32, ptr %33, align 4
  %64 = sub nsw i32 %62, %63
  store i32 %64, ptr %35, align 4
  %65 = load i32, ptr %35, align 4
  %66 = load i32, ptr %30, align 4
  %67 = icmp slt i32 %65, %66
  br i1 %67, label %68, label %70

68:                                               ; preds = %61
  %69 = load i32, ptr %35, align 4
  br label %72

70:                                               ; preds = %61
  %71 = load i32, ptr %22, align 4
  br label %72

72:                                               ; preds = %70, %68
  %73 = phi i32 [ %69, %68 ], [ %71, %70 ]
  store i32 %73, ptr %36, align 4
  %74 = load ptr, ptr %15, align 8
  %75 = getelementptr inbounds nuw %struct.AV1PixelRect, ptr %74, i32 0, i32 1
  %76 = load i32, ptr %75, align 4
  %77 = load i32, ptr %33, align 4
  %78 = add nsw i32 %76, %77
  %79 = getelementptr inbounds nuw %struct.RestorationTileLimits, ptr %37, i32 0, i32 2
  store i32 %78, ptr %79, align 4
  %80 = load ptr, ptr %15, align 8
  %81 = getelementptr inbounds nuw %struct.AV1PixelRect, ptr %80, i32 0, i32 1
  %82 = load i32, ptr %81, align 4
  %83 = load i32, ptr %33, align 4
  %84 = add nsw i32 %82, %83
  %85 = load i32, ptr %36, align 4
  %86 = add nsw i32 %84, %85
  %87 = getelementptr inbounds nuw %struct.RestorationTileLimits, ptr %37, i32 0, i32 3
  store i32 %86, ptr %87, align 4
  %88 = load i32, ptr %23, align 4
  %89 = ashr i32 8, %88
  store i32 %89, ptr %38, align 4
  %90 = load ptr, ptr %15, align 8
  %91 = getelementptr inbounds nuw %struct.AV1PixelRect, ptr %90, i32 0, i32 1
  %92 = load i32, ptr %91, align 4
  %93 = getelementptr inbounds nuw %struct.RestorationTileLimits, ptr %37, i32 0, i32 2
  %94 = load i32, ptr %93, align 4
  %95 = load i32, ptr %38, align 4
  %96 = sub nsw i32 %94, %95
  %97 = icmp sgt i32 %92, %96
  br i1 %97, label %98, label %102

98:                                               ; preds = %72
  %99 = load ptr, ptr %15, align 8
  %100 = getelementptr inbounds nuw %struct.AV1PixelRect, ptr %99, i32 0, i32 1
  %101 = load i32, ptr %100, align 4
  br label %107

102:                                              ; preds = %72
  %103 = getelementptr inbounds nuw %struct.RestorationTileLimits, ptr %37, i32 0, i32 2
  %104 = load i32, ptr %103, align 4
  %105 = load i32, ptr %38, align 4
  %106 = sub nsw i32 %104, %105
  br label %107

107:                                              ; preds = %102, %98
  %108 = phi i32 [ %101, %98 ], [ %106, %102 ]
  %109 = getelementptr inbounds nuw %struct.RestorationTileLimits, ptr %37, i32 0, i32 2
  store i32 %108, ptr %109, align 4
  %110 = getelementptr inbounds nuw %struct.RestorationTileLimits, ptr %37, i32 0, i32 3
  %111 = load i32, ptr %110, align 4
  %112 = load ptr, ptr %15, align 8
  %113 = getelementptr inbounds nuw %struct.AV1PixelRect, ptr %112, i32 0, i32 3
  %114 = load i32, ptr %113, align 4
  %115 = icmp slt i32 %111, %114
  br i1 %115, label %116, label %121

116:                                              ; preds = %107
  %117 = load i32, ptr %38, align 4
  %118 = getelementptr inbounds nuw %struct.RestorationTileLimits, ptr %37, i32 0, i32 3
  %119 = load i32, ptr %118, align 4
  %120 = sub nsw i32 %119, %117
  store i32 %120, ptr %118, align 4
  br label %121

121:                                              ; preds = %116, %107
  %122 = load ptr, ptr %15, align 8
  %123 = load ptr, ptr %25, align 8
  %124 = load i32, ptr %34, align 4
  %125 = load i32, ptr %22, align 4
  %126 = load i32, ptr %32, align 4
  %127 = load i32, ptr %19, align 4
  %128 = load i32, ptr %20, align 4
  %129 = load i32, ptr %24, align 4
  %130 = load ptr, ptr %26, align 8
  %131 = load ptr, ptr %27, align 8
  %132 = load ptr, ptr %28, align 8
  call void @av1_foreach_rest_unit_in_row(ptr noundef %37, ptr noundef %122, ptr noundef %123, i32 noundef %124, i32 noundef %125, i32 noundef %126, i32 noundef %127, i32 noundef %128, i32 noundef %129, ptr noundef %130, ptr noundef %131, ptr noundef %132, ptr noundef @av1_lr_sync_read_dummy, ptr noundef @av1_lr_sync_write_dummy, ptr noundef null)
  %133 = load i32, ptr %36, align 4
  %134 = load i32, ptr %33, align 4
  %135 = add nsw i32 %134, %133
  store i32 %135, ptr %33, align 4
  %136 = load i32, ptr %34, align 4
  %137 = add nsw i32 %136, 1
  store i32 %137, ptr %34, align 4
  br label %57, !llvm.loop !33

138:                                              ; preds = %57
  ret void
}

; Function Attrs: nounwind uwtable
define hidden void @av1_foreach_rest_unit_in_plane(ptr noundef %0, i32 noundef %1, ptr noundef %2, ptr noundef %3, ptr noundef %4, ptr noundef %5, ptr noundef %6) #0 {
  %8 = alloca ptr, align 8
  %9 = alloca i32, align 4
  %10 = alloca ptr, align 8
  %11 = alloca ptr, align 8
  %12 = alloca ptr, align 8
  %13 = alloca ptr, align 8
  %14 = alloca ptr, align 8
  %15 = alloca i32, align 4
  %16 = alloca i32, align 4
  %17 = alloca ptr, align 8
  store ptr %0, ptr %8, align 8
  store i32 %1, ptr %9, align 4
  store ptr %2, ptr %10, align 8
  store ptr %3, ptr %11, align 8
  store ptr %4, ptr %12, align 8
  store ptr %5, ptr %13, align 8
  store ptr %6, ptr %14, align 8
  %18 = load i32, ptr %9, align 4
  %19 = icmp sgt i32 %18, 0
  %20 = zext i1 %19 to i32
  store i32 %20, ptr %15, align 4
  %21 = load i32, ptr %15, align 4
  %22 = icmp ne i32 %21, 0
  br i1 %22, label %23, label %29

23:                                               ; preds = %7
  %24 = load ptr, ptr %8, align 8
  %25 = getelementptr inbounds nuw %struct.AV1Common, ptr %24, i32 0, i32 37
  %26 = getelementptr inbounds nuw %struct.SequenceHeader, ptr %25, i32 0, i32 33
  %27 = load i32, ptr %26, align 4
  %28 = icmp ne i32 %27, 0
  br label %29

29:                                               ; preds = %23, %7
  %30 = phi i1 [ false, %7 ], [ %28, %23 ]
  %31 = zext i1 %30 to i32
  store i32 %31, ptr %16, align 4
  %32 = load ptr, ptr %8, align 8
  %33 = getelementptr inbounds nuw %struct.AV1Common, ptr %32, i32 0, i32 29
  %34 = load i32, ptr %9, align 4
  %35 = sext i32 %34 to i64
  %36 = getelementptr inbounds [3 x %struct.RestorationInfo], ptr %33, i64 0, i64 %35
  store ptr %36, ptr %17, align 8
  %37 = load ptr, ptr %12, align 8
  %38 = load ptr, ptr %17, align 8
  %39 = getelementptr inbounds nuw %struct.RestorationInfo, ptr %38, i32 0, i32 4
  %40 = load i32, ptr %39, align 8
  %41 = load ptr, ptr %17, align 8
  %42 = getelementptr inbounds nuw %struct.RestorationInfo, ptr %41, i32 0, i32 3
  %43 = load i32, ptr %42, align 4
  %44 = load ptr, ptr %17, align 8
  %45 = getelementptr inbounds nuw %struct.RestorationInfo, ptr %44, i32 0, i32 2
  %46 = load i32, ptr %45, align 8
  %47 = load ptr, ptr %17, align 8
  %48 = getelementptr inbounds nuw %struct.RestorationInfo, ptr %47, i32 0, i32 1
  %49 = load i32, ptr %48, align 4
  %50 = load i32, ptr %16, align 4
  %51 = load i32, ptr %9, align 4
  %52 = load ptr, ptr %10, align 8
  %53 = load ptr, ptr %11, align 8
  %54 = load ptr, ptr %13, align 8
  %55 = load ptr, ptr %14, align 8
  call void @foreach_rest_unit_in_tile(ptr noundef %37, i32 noundef 0, i32 noundef 0, i32 noundef 1, i32 noundef %40, i32 noundef %43, i32 noundef %46, i32 noundef %49, i32 noundef %50, i32 noundef %51, ptr noundef %52, ptr noundef %53, ptr noundef %54, ptr noundef %55)
  ret void
}