; Function Attrs: nounwind uwtable
define hidden void @av1_foreach_rest_unit_in_plane(ptr noundef readonly captures(none) %0, i32 noundef %1, ptr noundef readonly captures(none) %2, ptr noundef %3, ptr noundef %4, ptr noundef %5, ptr noundef %6) local_unnamed_addr #2 {
  %8 = alloca %struct.RestorationTileLimits, align 4
  %9 = icmp sgt i32 %1, 0
  br i1 %9, label %10, label %15

10:                                               ; preds = %7
  %11 = getelementptr inbounds nuw i8, ptr %0, i64 25284
  %12 = load i32, ptr %11, align 4
  %13 = icmp ne i32 %12, 0
  %14 = zext i1 %13 to i32
  br label %15

15:                                               ; preds = %10, %7
  %16 = phi i32 [ 0, %7 ], [ %14, %10 ]
  %17 = getelementptr inbounds nuw i8, ptr %0, i64 23608
  %18 = sext i32 %1 to i64
  %19 = getelementptr inbounds [3 x %struct.RestorationInfo], ptr %17, i64 0, i64 %18
  %20 = getelementptr inbounds nuw i8, ptr %19, i64 16
  %21 = load i32, ptr %20, align 8
  %22 = getelementptr inbounds nuw i8, ptr %19, i64 12
  %23 = load i32, ptr %22, align 4
  %24 = getelementptr inbounds nuw i8, ptr %19, i64 4
  %25 = load i32, ptr %24, align 4
  call void @llvm.lifetime.start.p0(i64 16, ptr nonnull %8)
  %26 = getelementptr inbounds nuw i8, ptr %4, i64 12
  %27 = load i32, ptr %26, align 4
  %28 = getelementptr inbounds nuw i8, ptr %4, i64 4
  %29 = load i32, ptr %28, align 4
  %30 = sub nsw i32 %27, %29
  %31 = mul nsw i32 %25, 3
  %32 = sdiv i32 %31, 2
  %33 = icmp sgt i32 %30, 0
  br i1 %33, label %.lr.ph.i, label %foreach_rest_unit_in_tile.exit

.lr.ph.i:                                         ; preds = %15
  %34 = getelementptr inbounds nuw i8, ptr %8, i64 8
  %35 = getelementptr inbounds nuw i8, ptr %8, i64 12
  %36 = lshr exact i32 8, %16
  %37 = getelementptr inbounds nuw i8, ptr %4, i64 8
  %38 = getelementptr inbounds nuw i8, ptr %8, i64 4
  br label %39

39:                                               ; preds = %av1_foreach_rest_unit_in_row.exit.i, %.lr.ph.i
  %.048.i = phi i32 [ 0, %.lr.ph.i ], [ %79, %av1_foreach_rest_unit_in_row.exit.i ]
  %.04147.i = phi i32 [ 0, %.lr.ph.i ], [ %.pre-phi.i, %av1_foreach_rest_unit_in_row.exit.i ]
  %40 = sub nsw i32 %30, %.048.i
  %41 = icmp slt i32 %40, %32
  %42 = select i1 %41, i32 %40, i32 %25
  %43 = load i32, ptr %28, align 4
  %44 = add nsw i32 %43, %.048.i
  %45 = add nsw i32 %44, %42
  store i32 %45, ptr %35, align 4
  %46 = sub nsw i32 %44, %36
  %..i = call i32 @llvm.smax.i32(i32 %43, i32 %46)
  store i32 %..i, ptr %34, align 4
  %47 = load i32, ptr %26, align 4
  %48 = icmp slt i32 %45, %47
  br i1 %48, label %49, label %51

49:                                               ; preds = %39
  %50 = sub nsw i32 %45, %36
  store i32 %50, ptr %35, align 4
  br label %51

51:                                               ; preds = %49, %39
  %52 = load i32, ptr %37, align 4
  %53 = load i32, ptr %4, align 4
  %54 = sub nsw i32 %52, %53
  %55 = icmp sgt i32 %54, 0
  br i1 %55, label %.lr.ph.i.i, label %.av1_foreach_rest_unit_in_row.exit_crit_edge.i

.av1_foreach_rest_unit_in_row.exit_crit_edge.i:   ; preds = %51
  %.pre.i = add nuw nsw i32 %.04147.i, 1
  br label %av1_foreach_rest_unit_in_row.exit.i

.lr.ph.i.i:                                       ; preds = %51
  %56 = mul nsw i32 %.04147.i, %21
  %57 = add nuw i32 %.04147.i, 1
  %58 = icmp slt i32 %57, %23
  br i1 %58, label %.lr.ph.split.us.i.i, label %.lr.ph.split.i.i

.lr.ph.split.us.i.i:                              ; preds = %.lr.ph.i.i, %.lr.ph.split.us.i.i
  %.052.us.i.i = phi i32 [ %64, %.lr.ph.split.us.i.i ], [ 0, %.lr.ph.i.i ]
  %.04951.us.i.i = phi i32 [ %67, %.lr.ph.split.us.i.i ], [ 0, %.lr.ph.i.i ]
  %59 = sub nsw i32 %54, %.052.us.i.i
  %60 = icmp slt i32 %59, %32
  %61 = select i1 %60, i32 %59, i32 %25
  %62 = load i32, ptr %4, align 4
  %63 = add nsw i32 %62, %.052.us.i.i
  store i32 %63, ptr %8, align 4
  %64 = add i32 %61, %.052.us.i.i
  %65 = add i32 %64, %62
  store i32 %65, ptr %38, align 4
  %66 = add nsw i32 %.04951.us.i.i, %56
  call void %2(ptr noundef nonnull %8, ptr noundef nonnull %4, i32 noundef %66, ptr noundef %3, ptr noundef %5, ptr noundef %6) #12
  %67 = add nuw nsw i32 %.04951.us.i.i, 1
  %68 = icmp slt i32 %64, %54
  br i1 %68, label %.lr.ph.split.us.i.i, label %av1_foreach_rest_unit_in_row.exit.i, !llvm.loop !34

.lr.ph.split.i.i:                                 ; preds = %.lr.ph.i.i, %.lr.ph.split.i.i
  %.052.i.i = phi i32 [ %74, %.lr.ph.split.i.i ], [ 0, %.lr.ph.i.i ]
  %.04951.i.i = phi i32 [ %77, %.lr.ph.split.i.i ], [ 0, %.lr.ph.i.i ]
  %69 = sub nsw i32 %54, %.052.i.i
  %70 = icmp slt i32 %69, %32
  %71 = select i1 %70, i32 %69, i32 %25
  %72 = load i32, ptr %4, align 4
  %73 = add nsw i32 %72, %.052.i.i
  store i32 %73, ptr %8, align 4
  %74 = add i32 %71, %.052.i.i
  %75 = add i32 %74, %72
  store i32 %75, ptr %38, align 4
  %76 = add nsw i32 %.04951.i.i, %56
  call void %2(ptr noundef nonnull %8, ptr noundef nonnull %4, i32 noundef %76, ptr noundef %3, ptr noundef %5, ptr noundef %6) #12
  %77 = add nuw nsw i32 %.04951.i.i, 1
  %78 = icmp slt i32 %74, %54
  br i1 %78, label %.lr.ph.split.i.i, label %av1_foreach_rest_unit_in_row.exit.i, !llvm.loop !34

av1_foreach_rest_unit_in_row.exit.i:              ; preds = %.lr.ph.split.i.i, %.lr.ph.split.us.i.i, %.av1_foreach_rest_unit_in_row.exit_crit_edge.i
  %.pre-phi.i = phi i32 [ %.pre.i, %.av1_foreach_rest_unit_in_row.exit_crit_edge.i ], [ %57, %.lr.ph.split.us.i.i ], [ %57, %.lr.ph.split.i.i ]
  %79 = add nsw i32 %42, %.048.i
  %80 = icmp slt i32 %79, %30
  br i1 %80, label %39, label %foreach_rest_unit_in_tile.exit, !llvm.loop !35

foreach_rest_unit_in_tile.exit:                   ; preds = %av1_foreach_rest_unit_in_row.exit.i, %15
  call void @llvm.lifetime.end.p0(i64 16, ptr nonnull %8)
  ret void
}